target datalayout = "e-m:e-p270:32:32-p271:32:32-p272:64:64-i64:64-i128:128-f80:128-n8:16:32:64-S128"
target triple = "x86_64-pc-linux-gnu"

%struct.ASN1_STREAM_ARG_st = type { ptr, ptr, ptr }
%struct.ASN1_ITEM_st = type { i8, i64, ptr, i64, ptr, i64, ptr }
%struct.ASN1_AUX_st = type { ptr, i32, i32, ptr, i32 }
%struct.ndef_aux_st = type { ptr, ptr, ptr, ptr, ptr, ptr }

@.str = private unnamed_addr constant [126 x i8] c"generated/home/dtcxzyw/WorkSpace/Projects/compilers/llvm-opt-benchmark/bench/libquic/libquic/boringssl/crypto/asn1/bio_ndef.c\00", align 1

; Function Attrs: nounwind uwtable
define hidden ptr @BIO_new_NDEF(ptr noundef %0, ptr noundef %1, ptr noundef %2) #0 {
  %4 = alloca ptr, align 8
  %5 = alloca ptr, align 8
  %6 = alloca ptr, align 8
  %7 = alloca ptr, align 8
  %8 = alloca ptr, align 8
  %9 = alloca ptr, align 8
  %10 = alloca ptr, align 8
  %11 = alloca %struct.ASN1_STREAM_ARG_st, align 8
  %12 = alloca i32, align 4
  store ptr %0, ptr %5, align 8, !tbaa !6
  store ptr %1, ptr %6, align 8, !tbaa !11
  store ptr %2, ptr %7, align 8, !tbaa !13
  call void @llvm.lifetime.start.p0(i64 8, ptr %8) #5
  store ptr null, ptr %8, align 8, !tbaa !15
  call void @llvm.lifetime.start.p0(i64 8, ptr %9) #5
  store ptr null, ptr %9, align 8, !tbaa !6
  call void @llvm.lifetime.start.p0(i64 8, ptr %10) #5
  %13 = load ptr, ptr %7, align 8, !tbaa !13
  %14 = getelementptr inbounds nuw %struct.ASN1_ITEM_st, ptr %13, i32 0, i32 4
  %15 = load ptr, ptr %14, align 8, !tbaa !17
  store ptr %15, ptr %10, align 8, !tbaa !22
  call void @llvm.lifetime.start.p0(i64 24, ptr %11) #5
  %16 = load ptr, ptr %10, align 8, !tbaa !22
  %17 = icmp ne ptr %16, null
  br i1 %17, label %18, label %23

18:                                               ; preds = %3
  %19 = load ptr, ptr %10, align 8, !tbaa !22
  %20 = getelementptr inbounds nuw %struct.ASN1_AUX_st, ptr %19, i32 0, i32 3
  %21 = load ptr, ptr %20, align 8, !tbaa !24
  %22 = icmp ne ptr %21, null
  br i1 %22, label %24, label %23

23:                                               ; preds = %18, %3
  call void @ERR_put_error(i32 noundef 12, i32 noundef 0, i32 noundef 172, ptr noundef @.str, i32 noundef 109)
  store ptr null, ptr %4, align 8
  store i32 1, ptr %12, align 4
  br label %91

24:                                               ; preds = %18
  %25 = call noalias ptr @malloc(i64 noundef 48) #6
  store ptr %25, ptr %8, align 8, !tbaa !15
  %26 = call ptr @BIO_f_asn1()
  %27 = call ptr @BIO_new(ptr noundef %26)
  store ptr %27, ptr %9, align 8, !tbaa !6
  %28 = load ptr, ptr %9, align 8, !tbaa !6
  %29 = load ptr, ptr %5, align 8, !tbaa !6
  %30 = call ptr @BIO_push(ptr noundef %28, ptr noundef %29)
  store ptr %30, ptr %5, align 8, !tbaa !6
  %31 = load ptr, ptr %8, align 8, !tbaa !15
  %32 = icmp ne ptr %31, null
  br i1 %32, label %33, label %39

33:                                               ; preds = %24
  %34 = load ptr, ptr %9, align 8, !tbaa !6
  %35 = icmp ne ptr %34, null
  br i1 %35, label %36, label %39

36:                                               ; preds = %33
  %37 = load ptr, ptr %5, align 8, !tbaa !6
  %38 = icmp ne ptr %37, null
  br i1 %38, label %40, label %39

39:                                               ; preds = %36, %33, %24
  br label %79

40:                                               ; preds = %36
  %41 = load ptr, ptr %9, align 8, !tbaa !6
  %42 = call i32 @BIO_asn1_set_prefix(ptr noundef %41, ptr noundef @ndef_prefix, ptr noundef @ndef_prefix_free)
  %43 = load ptr, ptr %9, align 8, !tbaa !6
  %44 = call i32 @BIO_asn1_set_suffix(ptr noundef %43, ptr noundef @ndef_suffix, ptr noundef @ndef_suffix_free)
  %45 = load ptr, ptr %5, align 8, !tbaa !6
  %46 = getelementptr inbounds nuw %struct.ASN1_STREAM_ARG_st, ptr %11, i32 0, i32 0
  store ptr %45, ptr %46, align 8, !tbaa !27
  %47 = getelementptr inbounds nuw %struct.ASN1_STREAM_ARG_st, ptr %11, i32 0, i32 1
  store ptr null, ptr %47, align 8, !tbaa !30
  %48 = getelementptr inbounds nuw %struct.ASN1_STREAM_ARG_st, ptr %11, i32 0, i32 2
  store ptr null, ptr %48, align 8, !tbaa !31
  %49 = load ptr, ptr %10, align 8, !tbaa !22
  %50 = getelementptr inbounds nuw %struct.ASN1_AUX_st, ptr %49, i32 0, i32 3
  %51 = load ptr, ptr %50, align 8, !tbaa !24
  %52 = load ptr, ptr %7, align 8, !tbaa !13
  %53 = call i32 %51(i32 noundef 10, ptr noundef %6, ptr noundef %52, ptr noundef %11)
  %54 = icmp sle i32 %53, 0
  br i1 %54, label %55, label %56

55:                                               ; preds = %40
  br label %79

56:                                               ; preds = %40
  %57 = load ptr, ptr %6, align 8, !tbaa !11
  %58 = load ptr, ptr %8, align 8, !tbaa !15
  %59 = getelementptr inbounds nuw %struct.ndef_aux_st, ptr %58, i32 0, i32 0
  store ptr %57, ptr %59, align 8, !tbaa !32
  %60 = load ptr, ptr %7, align 8, !tbaa !13
  %61 = load ptr, ptr %8, align 8, !tbaa !15
  %62 = getelementptr inbounds nuw %struct.ndef_aux_st, ptr %61, i32 0, i32 1
  store ptr %60, ptr %62, align 8, !tbaa !34
  %63 = getelementptr inbounds nuw %struct.ASN1_STREAM_ARG_st, ptr %11, i32 0, i32 1
  %64 = load ptr, ptr %63, align 8, !tbaa !30
  %65 = load ptr, ptr %8, align 8, !tbaa !15
  %66 = getelementptr inbounds nuw %struct.ndef_aux_st, ptr %65, i32 0, i32 2
  store ptr %64, ptr %66, align 8, !tbaa !35
  %67 = getelementptr inbounds nuw %struct.ASN1_STREAM_ARG_st, ptr %11, i32 0, i32 2
  %68 = load ptr, ptr %67, align 8, !tbaa !31
  %69 = load ptr, ptr %8, align 8, !tbaa !15
  %70 = getelementptr inbounds nuw %struct.ndef_aux_st, ptr %69, i32 0, i32 4
  store ptr %68, ptr %70, align 8, !tbaa !36
  %71 = load ptr, ptr %5, align 8, !tbaa !6
  %72 = load ptr, ptr %8, align 8, !tbaa !15
  %73 = getelementptr inbounds nuw %struct.ndef_aux_st, ptr %72, i32 0, i32 3
  store ptr %71, ptr %73, align 8, !tbaa !37
  %74 = load ptr, ptr %9, align 8, !tbaa !6
  %75 = load ptr, ptr %8, align 8, !tbaa !15
  %76 = call i64 @BIO_ctrl(ptr noundef %74, i32 noundef 153, i64 noundef 0, ptr noundef %75)
  %77 = getelementptr inbounds nuw %struct.ASN1_STREAM_ARG_st, ptr %11, i32 0, i32 1
  %78 = load ptr, ptr %77, align 8, !tbaa !30
  store ptr %78, ptr %4, align 8
  store i32 1, ptr %12, align 4
  br label %91

79:                                               ; preds = %55, %39
  %80 = load ptr, ptr %9, align 8, !tbaa !6
  %81 = icmp ne ptr %80, null
  br i1 %81, label %82, label %85

82:                                               ; preds = %79
  %83 = load ptr, ptr %9, align 8, !tbaa !6
  %84 = call i32 @BIO_free(ptr noundef %83)
  br label %85

85:                                               ; preds = %82, %79
  %86 = load ptr, ptr %8, align 8, !tbaa !15
  %87 = icmp ne ptr %86, null
  br i1 %87, label %88, label %90

88:                                               ; preds = %85
  %89 = load ptr, ptr %8, align 8, !tbaa !15
  call void @free(ptr noundef %89) #5
  br label %90

90:                                               ; preds = %88, %85
  store ptr null, ptr %4, align 8
  store i32 1, ptr %12, align 4
  br label %91

91:                                               ; preds = %90, %56, %23
  call void @llvm.lifetime.end.p0(i64 24, ptr %11) #5
  call void @llvm.lifetime.end.p0(i64 8, ptr %10) #5
  call void @llvm.lifetime.end.p0(i64 8, ptr %9) #5
  call void @llvm.lifetime.end.p0(i64 8, ptr %8) #5
  %92 = load ptr, ptr %4, align 8
  ret ptr %92
}