; Function Attrs: nounwind uwtable
define hidden ptr @BIO_new_NDEF(ptr noundef %0, ptr noundef %1, ptr noundef %2) local_unnamed_addr #0 {
  %4 = alloca ptr, align 8
  %5 = alloca %struct.ASN1_STREAM_ARG_st, align 8
  store ptr %1, ptr %4, align 8, !tbaa !6
  %6 = getelementptr inbounds nuw i8, ptr %2, i64 32
  %7 = load ptr, ptr %6, align 8, !tbaa !11
  call void @llvm.lifetime.start.p0(i64 24, ptr nonnull %5) #7
  %.not = icmp eq ptr %7, null
  br i1 %.not, label %11, label %8

8:                                                ; preds = %3
  %9 = getelementptr inbounds nuw i8, ptr %7, i64 16
  %10 = load ptr, ptr %9, align 8, !tbaa !16
  %.not35 = icmp eq ptr %10, null
  br i1 %.not35, label %11, label %12

11:                                               ; preds = %8, %3
  tail call void @ERR_put_error(i32 noundef 12, i32 noundef 0, i32 noundef 172, ptr noundef nonnull @.str, i32 noundef 109) #7
  br label %42

12:                                               ; preds = %8
  %13 = tail call noalias dereferenceable_or_null(48) ptr @malloc(i64 noundef 48) #8
  %14 = tail call ptr @BIO_f_asn1() #7
  %15 = tail call ptr @BIO_new(ptr noundef %14) #7
  %16 = tail call ptr @BIO_push(ptr noundef %15, ptr noundef %0) #7
  %17 = icmp ne ptr %13, null
  %18 = icmp ne ptr %15, null
  %or.cond = and i1 %17, %18
  %19 = icmp ne ptr %16, null
  %or.cond3 = select i1 %or.cond, i1 %19, i1 false
  br i1 %or.cond3, label %20, label %38

20:                                               ; preds = %12
  %21 = tail call i32 @BIO_asn1_set_prefix(ptr noundef nonnull %15, ptr noundef nonnull @ndef_prefix, ptr noundef nonnull @ndef_prefix_free) #7
  %22 = tail call i32 @BIO_asn1_set_suffix(ptr noundef nonnull %15, ptr noundef nonnull @ndef_suffix, ptr noundef nonnull @ndef_suffix_free) #7
  store ptr %16, ptr %5, align 8, !tbaa !19
  %23 = getelementptr inbounds nuw i8, ptr %5, i64 8
  call void @llvm.memset.p0.i64(ptr noundef nonnull align 8 dereferenceable(16) %23, i8 0, i64 16, i1 false)
  %24 = load ptr, ptr %9, align 8, !tbaa !16
  %25 = call i32 %24(i32 noundef 10, ptr noundef nonnull %4, ptr noundef nonnull %2, ptr noundef nonnull %5) #7
  %26 = icmp slt i32 %25, 1
  br i1 %26, label %.thread, label %27

27:                                               ; preds = %20
  %28 = getelementptr inbounds nuw i8, ptr %5, i64 16
  %29 = load ptr, ptr %4, align 8, !tbaa !6
  store ptr %29, ptr %13, align 8, !tbaa !23
  %30 = getelementptr inbounds nuw i8, ptr %13, i64 8
  store ptr %2, ptr %30, align 8, !tbaa !26
  %31 = load ptr, ptr %23, align 8, !tbaa !27
  %32 = getelementptr inbounds nuw i8, ptr %13, i64 16
  store ptr %31, ptr %32, align 8, !tbaa !28
  %33 = load ptr, ptr %28, align 8, !tbaa !29
  %34 = getelementptr inbounds nuw i8, ptr %13, i64 32
  store ptr %33, ptr %34, align 8, !tbaa !30
  %35 = getelementptr inbounds nuw i8, ptr %13, i64 24
  store ptr %16, ptr %35, align 8, !tbaa !31
  %36 = call i64 @BIO_ctrl(ptr noundef nonnull %15, i32 noundef 153, i64 noundef 0, ptr noundef nonnull %13) #7
  %37 = load ptr, ptr %23, align 8, !tbaa !27
  br label %42

38:                                               ; preds = %12
  br i1 %18, label %.thread, label %40

.thread:                                          ; preds = %20, %38
  %39 = call i32 @BIO_free(ptr noundef nonnull %15) #7
  br label %40

40:                                               ; preds = %.thread, %38
  br i1 %17, label %41, label %42

41:                                               ; preds = %40
  call void @free(ptr noundef nonnull %13) #7
  br label %42

42:                                               ; preds = %40, %41, %27, %11
  %.0 = phi ptr [ %37, %27 ], [ null, %11 ], [ null, %41 ], [ null, %40 ]
  call void @llvm.lifetime.end.p0(i64 24, ptr nonnull %5) #7
  ret ptr %.0
}